target datalayout = "e-m:e-p270:32:32-p271:32:32-p272:64:64-i64:64-i128:128-f80:128-n8:16:32:64-S128"
target triple = "x86_64-pc-linux-gnu"

@stderr = external global ptr, align 8
@.str.59 = private unnamed_addr constant [17 x i8] c"CVodeGetNumSteps\00", align 1
@.str.60 = private unnamed_addr constant [20 x i8] c"CVodeGetNumRhsEvals\00", align 1
@.str.61 = private unnamed_addr constant [25 x i8] c"CVodeGetNumLinSolvSetups\00", align 1
@.str.62 = private unnamed_addr constant [24 x i8] c"CVodeGetNumErrTestFails\00", align 1
@.str.63 = private unnamed_addr constant [27 x i8] c"CVodeGetNumNonlinSolvIters\00", align 1
@.str.64 = private unnamed_addr constant [31 x i8] c"CVodeGetNumNonlinSolvConvFails\00", align 1
@.str.65 = private unnamed_addr constant [20 x i8] c"CVodeGetNumJacEvals\00", align 1
@.str.66 = private unnamed_addr constant [26 x i8] c"\0AIntegration Statistics:\0A\00", align 1
@.str.67 = private unnamed_addr constant [31 x i8] c"Number of steps taken = %-6ld\0A\00", align 1
@.str.68 = private unnamed_addr constant [40 x i8] c"Number of function evaluations = %-6ld\0A\00", align 1
@.str.69 = private unnamed_addr constant [40 x i8] c"Number of linear solver setups = %-6ld\0A\00", align 1
@.str.70 = private unnamed_addr constant [40 x i8] c"Number of Jacobian evaluations = %-6ld\0A\00", align 1
@.str.71 = private unnamed_addr constant [47 x i8] c"Number of nonlinear solver iterations = %-6ld\0A\00", align 1
@.str.72 = private unnamed_addr constant [40 x i8] c"Number of convergence failures = %-6ld\0A\00", align 1
@.str.73 = private unnamed_addr constant [39 x i8] c"Number of error test failures = %-6ld\0A\00", align 1
@.str.74 = private unnamed_addr constant [39 x i8] c"\0AERROR: %s() returned a NULL pointer\0A\0A\00", align 1
@.str.75 = private unnamed_addr constant [29 x i8] c"\0AERROR: %s() returned = %d\0A\0A\00", align 1

; Function Attrs: nounwind uwtable
define internal i32 @check_retval(ptr noundef %0, ptr noundef %1, i32 noundef %2) #0 {
  %4 = alloca i32, align 4
  %5 = alloca ptr, align 8
  %6 = alloca ptr, align 8
  %7 = alloca i32, align 4
  %8 = alloca ptr, align 8
  %9 = alloca i32, align 4
  store ptr %0, ptr %5, align 8, !tbaa !17
  store ptr %1, ptr %6, align 8, !tbaa !37
  store i32 %2, ptr %7, align 4, !tbaa !4
  call void @llvm.lifetime.start.p0(i64 8, ptr %8) #8
  %10 = load i32, ptr %7, align 4, !tbaa !4
  %11 = icmp eq i32 %10, 0
  br i1 %11, label %12, label %19

12:                                               ; preds = %3
  %13 = load ptr, ptr %5, align 8, !tbaa !17
  %14 = icmp eq ptr %13, null
  br i1 %14, label %15, label %19

15:                                               ; preds = %12
  %16 = load ptr, ptr @stderr, align 8, !tbaa !26
  %17 = load ptr, ptr %6, align 8, !tbaa !37
  %18 = call i32 (ptr, ptr, ...) @fprintf(ptr noundef %16, ptr noundef @.str.74, ptr noundef %17) #8
  store i32 1, ptr %4, align 4
  store i32 1, ptr %9, align 4
  br label %36

19:                                               ; preds = %12, %3
  %20 = load i32, ptr %7, align 4, !tbaa !4
  %21 = icmp eq i32 %20, 1
  br i1 %21, label %22, label %34

22:                                               ; preds = %19
  %23 = load ptr, ptr %5, align 8, !tbaa !17
  store ptr %23, ptr %8, align 8, !tbaa !39
  %24 = load ptr, ptr %8, align 8, !tbaa !39
  %25 = load i32, ptr %24, align 4, !tbaa !4
  %26 = icmp slt i32 %25, 0
  br i1 %26, label %27, label %33

27:                                               ; preds = %22
  %28 = load ptr, ptr @stderr, align 8, !tbaa !26
  %29 = load ptr, ptr %6, align 8, !tbaa !37
  %30 = load ptr, ptr %8, align 8, !tbaa !39
  %31 = load i32, ptr %30, align 4, !tbaa !4
  %32 = call i32 (ptr, ptr, ...) @fprintf(ptr noundef %28, ptr noundef @.str.75, ptr noundef %29, i32 noundef %31) #8
  store i32 1, ptr %4, align 4
  store i32 1, ptr %9, align 4
  br label %36

33:                                               ; preds = %22
  br label %34

34:                                               ; preds = %33, %19
  br label %35

35:                                               ; preds = %34
  store i32 0, ptr %4, align 4
  store i32 1, ptr %9, align 4
  br label %36

36:                                               ; preds = %35, %27, %15
  call void @llvm.lifetime.end.p0(i64 8, ptr %8) #8
  %37 = load i32, ptr %4, align 4
  ret i32 %37
}

; Function Attrs: nounwind uwtable
define internal i32 @PrintStats(ptr noundef %0) #0 {
  %2 = alloca ptr, align 8
  %3 = alloca i32, align 4
  %4 = alloca i64, align 8
  %5 = alloca i64, align 8
  %6 = alloca i64, align 8
  %7 = alloca i64, align 8
  %8 = alloca i64, align 8
  %9 = alloca i64, align 8
  %10 = alloca i64, align 8
  store ptr %0, ptr %2, align 8, !tbaa !17
  call void @llvm.lifetime.start.p0(i64 4, ptr %3) #8
  call void @llvm.lifetime.start.p0(i64 8, ptr %4) #8
  call void @llvm.lifetime.start.p0(i64 8, ptr %5) #8
  call void @llvm.lifetime.start.p0(i64 8, ptr %6) #8
  call void @llvm.lifetime.start.p0(i64 8, ptr %7) #8
  call void @llvm.lifetime.start.p0(i64 8, ptr %8) #8
  call void @llvm.lifetime.start.p0(i64 8, ptr %9) #8
  call void @llvm.lifetime.start.p0(i64 8, ptr %10) #8
  %11 = load ptr, ptr %2, align 8, !tbaa !17
  %12 = call i32 @CVodeGetNumSteps(ptr noundef %11, ptr noundef %4)
  store i32 %12, ptr %3, align 4, !tbaa !4
  %13 = call i32 @check_retval(ptr noundef %3, ptr noundef @.str.59, i32 noundef 1)
  %14 = load ptr, ptr %2, align 8, !tbaa !17
  %15 = call i32 @CVodeGetNumRhsEvals(ptr noundef %14, ptr noundef %5)
  store i32 %15, ptr %3, align 4, !tbaa !4
  %16 = call i32 @check_retval(ptr noundef %3, ptr noundef @.str.60, i32 noundef 1)
  %17 = load ptr, ptr %2, align 8, !tbaa !17
  %18 = call i32 @CVodeGetNumLinSolvSetups(ptr noundef %17, ptr noundef %6)
  store i32 %18, ptr %3, align 4, !tbaa !4
  %19 = call i32 @check_retval(ptr noundef %3, ptr noundef @.str.61, i32 noundef 1)
  %20 = load ptr, ptr %2, align 8, !tbaa !17
  %21 = call i32 @CVodeGetNumErrTestFails(ptr noundef %20, ptr noundef %10)
  store i32 %21, ptr %3, align 4, !tbaa !4
  %22 = call i32 @check_retval(ptr noundef %3, ptr noundef @.str.62, i32 noundef 1)
  %23 = load ptr, ptr %2, align 8, !tbaa !17
  %24 = call i32 @CVodeGetNumNonlinSolvIters(ptr noundef %23, ptr noundef %8)
  store i32 %24, ptr %3, align 4, !tbaa !4
  %25 = call i32 @check_retval(ptr noundef %3, ptr noundef @.str.63, i32 noundef 1)
  %26 = load ptr, ptr %2, align 8, !tbaa !17
  %27 = call i32 @CVodeGetNumNonlinSolvConvFails(ptr noundef %26, ptr noundef %9)
  store i32 %27, ptr %3, align 4, !tbaa !4
  %28 = call i32 @check_retval(ptr noundef %3, ptr noundef @.str.64, i32 noundef 1)
  %29 = load ptr, ptr %2, align 8, !tbaa !17
  %30 = call i32 @CVodeGetNumJacEvals(ptr noundef %29, ptr noundef %7)
  store i32 %30, ptr %3, align 4, !tbaa !4
  %31 = call i32 @check_retval(ptr noundef %3, ptr noundef @.str.65, i32 noundef 1)
  %32 = call i32 (ptr, ...) @printf(ptr noundef @.str.66)
  %33 = load i64, ptr %4, align 8, !tbaa !44
  %34 = call i32 (ptr, ...) @printf(ptr noundef @.str.67, i64 noundef %33)
  %35 = load i64, ptr %5, align 8, !tbaa !44
  %36 = call i32 (ptr, ...) @printf(ptr noundef @.str.68, i64 noundef %35)
  %37 = load i64, ptr %6, align 8, !tbaa !44
  %38 = call i32 (ptr, ...) @printf(ptr noundef @.str.69, i64 noundef %37)
  %39 = load i64, ptr %7, align 8, !tbaa !44
  %40 = call i32 (ptr, ...) @printf(ptr noundef @.str.70, i64 noundef %39)
  %41 = load i64, ptr %8, align 8, !tbaa !44
  %42 = call i32 (ptr, ...) @printf(ptr noundef @.str.71, i64 noundef %41)
  %43 = load i64, ptr %9, align 8, !tbaa !44
  %44 = call i32 (ptr, ...) @printf(ptr noundef @.str.72, i64 noundef %43)
  %45 = load i64, ptr %10, align 8, !tbaa !44
  %46 = call i32 (ptr, ...) @printf(ptr noundef @.str.73, i64 noundef %45)
  call void @llvm.lifetime.end.p0(i64 8, ptr %10) #8
  call void @llvm.lifetime.end.p0(i64 8, ptr %9) #8
  call void @llvm.lifetime.end.p0(i64 8, ptr %8) #8
  call void @llvm.lifetime.end.p0(i64 8, ptr %7) #8
  call void @llvm.lifetime.end.p0(i64 8, ptr %6) #8
  call void @llvm.lifetime.end.p0(i64 8, ptr %5) #8
  call void @llvm.lifetime.end.p0(i64 8, ptr %4) #8
  call void @llvm.lifetime.end.p0(i64 4, ptr %3) #8
  ret i32 0
}