; Function Attrs: nounwind uwtable
define internal fastcc void @PrintStats(ptr noundef %0) unnamed_addr #0 {
  %2 = alloca i64, align 8
  %3 = alloca i64, align 8
  %4 = alloca i64, align 8
  %5 = alloca i64, align 8
  %6 = alloca i64, align 8
  %7 = alloca i64, align 8
  %8 = alloca i64, align 8
  call void @llvm.lifetime.start.p0(i64 8, ptr nonnull %2) #13
  call void @llvm.lifetime.start.p0(i64 8, ptr nonnull %3) #13
  call void @llvm.lifetime.start.p0(i64 8, ptr nonnull %4) #13
  call void @llvm.lifetime.start.p0(i64 8, ptr nonnull %5) #13
  call void @llvm.lifetime.start.p0(i64 8, ptr nonnull %6) #13
  call void @llvm.lifetime.start.p0(i64 8, ptr nonnull %7) #13
  call void @llvm.lifetime.start.p0(i64 8, ptr nonnull %8) #13
  %9 = call i32 @CVodeGetNumSteps(ptr noundef %0, ptr noundef nonnull %2) #13
  %10 = icmp slt i32 %9, 0
  br i1 %10, label %11, label %check_retval.exit

11:                                               ; preds = %1
  %12 = load ptr, ptr @stderr, align 8, !tbaa !11
  %13 = call i32 (ptr, ptr, ...) @fprintf(ptr noundef %12, ptr noundef nonnull @.str.75, ptr noundef nonnull @.str.59, i32 noundef %9) #14
  br label %check_retval.exit

check_retval.exit:                                ; preds = %1, %11
  %14 = call i32 @CVodeGetNumRhsEvals(ptr noundef %0, ptr noundef nonnull %3) #13
  %15 = icmp slt i32 %14, 0
  br i1 %15, label %16, label %check_retval.exit8

16:                                               ; preds = %check_retval.exit
  %17 = load ptr, ptr @stderr, align 8, !tbaa !11
  %18 = call i32 (ptr, ptr, ...) @fprintf(ptr noundef %17, ptr noundef nonnull @.str.75, ptr noundef nonnull @.str.60, i32 noundef %14) #14
  br label %check_retval.exit8

check_retval.exit8:                               ; preds = %check_retval.exit, %16
  %19 = call i32 @CVodeGetNumLinSolvSetups(ptr noundef %0, ptr noundef nonnull %4) #13
  %20 = icmp slt i32 %19, 0
  br i1 %20, label %21, label %check_retval.exit10

21:                                               ; preds = %check_retval.exit8
  %22 = load ptr, ptr @stderr, align 8, !tbaa !11
  %23 = call i32 (ptr, ptr, ...) @fprintf(ptr noundef %22, ptr noundef nonnull @.str.75, ptr noundef nonnull @.str.61, i32 noundef %19) #14
  br label %check_retval.exit10

check_retval.exit10:                              ; preds = %check_retval.exit8, %21
  %24 = call i32 @CVodeGetNumErrTestFails(ptr noundef %0, ptr noundef nonnull %8) #13
  %25 = icmp slt i32 %24, 0
  br i1 %25, label %26, label %check_retval.exit12

26:                                               ; preds = %check_retval.exit10
  %27 = load ptr, ptr @stderr, align 8, !tbaa !11
  %28 = call i32 (ptr, ptr, ...) @fprintf(ptr noundef %27, ptr noundef nonnull @.str.75, ptr noundef nonnull @.str.62, i32 noundef %24) #14
  br label %check_retval.exit12

check_retval.exit12:                              ; preds = %check_retval.exit10, %26
  %29 = call i32 @CVodeGetNumNonlinSolvIters(ptr noundef %0, ptr noundef nonnull %6) #13
  %30 = icmp slt i32 %29, 0
  br i1 %30, label %31, label %check_retval.exit14

31:                                               ; preds = %check_retval.exit12
  %32 = load ptr, ptr @stderr, align 8, !tbaa !11
  %33 = call i32 (ptr, ptr, ...) @fprintf(ptr noundef %32, ptr noundef nonnull @.str.75, ptr noundef nonnull @.str.63, i32 noundef %29) #14
  br label %check_retval.exit14

check_retval.exit14:                              ; preds = %check_retval.exit12, %31
  %34 = call i32 @CVodeGetNumNonlinSolvConvFails(ptr noundef %0, ptr noundef nonnull %7) #13
  %35 = icmp slt i32 %34, 0
  br i1 %35, label %36, label %check_retval.exit16

36:                                               ; preds = %check_retval.exit14
  %37 = load ptr, ptr @stderr, align 8, !tbaa !11
  %38 = call i32 (ptr, ptr, ...) @fprintf(ptr noundef %37, ptr noundef nonnull @.str.75, ptr noundef nonnull @.str.64, i32 noundef %34) #14
  br label %check_retval.exit16

check_retval.exit16:                              ; preds = %check_retval.exit14, %36
  %39 = call i32 @CVodeGetNumJacEvals(ptr noundef %0, ptr noundef nonnull %5) #13
  %40 = icmp slt i32 %39, 0
  br i1 %40, label %41, label %check_retval.exit18

41:                                               ; preds = %check_retval.exit16
  %42 = load ptr, ptr @stderr, align 8, !tbaa !11
  %43 = call i32 (ptr, ptr, ...) @fprintf(ptr noundef %42, ptr noundef nonnull @.str.75, ptr noundef nonnull @.str.65, i32 noundef %39) #14
  br label %check_retval.exit18

check_retval.exit18:                              ; preds = %check_retval.exit16, %41
  %puts = call i32 @puts(ptr nonnull dereferenceable(1) @str.5)
  %44 = load i64, ptr %2, align 8, !tbaa !28
  %45 = call i32 (ptr, ...) @printf(ptr noundef nonnull dereferenceable(1) @.str.67, i64 noundef %44)
  %46 = load i64, ptr %3, align 8, !tbaa !28
  %47 = call i32 (ptr, ...) @printf(ptr noundef nonnull dereferenceable(1) @.str.68, i64 noundef %46)
  %48 = load i64, ptr %4, align 8, !tbaa !28
  %49 = call i32 (ptr, ...) @printf(ptr noundef nonnull dereferenceable(1) @.str.69, i64 noundef %48)
  %50 = load i64, ptr %5, align 8, !tbaa !28
  %51 = call i32 (ptr, ...) @printf(ptr noundef nonnull dereferenceable(1) @.str.70, i64 noundef %50)
  %52 = load i64, ptr %6, align 8, !tbaa !28
  %53 = call i32 (ptr, ...) @printf(ptr noundef nonnull dereferenceable(1) @.str.71, i64 noundef %52)
  %54 = load i64, ptr %7, align 8, !tbaa !28
  %55 = call i32 (ptr, ...) @printf(ptr noundef nonnull dereferenceable(1) @.str.72, i64 noundef %54)
  %56 = load i64, ptr %8, align 8, !tbaa !28
  %57 = call i32 (ptr, ...) @printf(ptr noundef nonnull dereferenceable(1) @.str.73, i64 noundef %56)
  call void @llvm.lifetime.end.p0(i64 8, ptr nonnull %8) #13
  call void @llvm.lifetime.end.p0(i64 8, ptr nonnull %7) #13
  call void @llvm.lifetime.end.p0(i64 8, ptr nonnull %6) #13
  call void @llvm.lifetime.end.p0(i64 8, ptr nonnull %5) #13
  call void @llvm.lifetime.end.p0(i64 8, ptr nonnull %4) #13
  call void @llvm.lifetime.end.p0(i64 8, ptr nonnull %3) #13
  call void @llvm.lifetime.end.p0(i64 8, ptr nonnull %2) #13
  ret void
}